; Function Attrs: mustprogress uwtable
define noundef zeroext i1 @_Z30grpc_copy_json_string_propertyRKN9grpc_core12experimental4JsonEPKcPPc(ptr noundef nonnull align 8 dereferenceable(56) %0, ptr noundef %1, ptr noundef writeonly captures(none) %2) local_unnamed_addr #3 personality ptr @__gxx_personality_v0 {
  %4 = alloca %"class.absl::lts_20240722::Status", align 8
  %5 = alloca %"class.absl::lts_20240722::Status", align 8
  %6 = alloca %"class.absl::lts_20240722::Status", align 8
  call void @llvm.lifetime.start.p0(i64 8, ptr nonnull %5) #18
  store i64 1, ptr %5, align 8, !tbaa !14
  %7 = invoke noundef ptr @_Z29grpc_json_get_string_propertyRKN9grpc_core12experimental4JsonEPKcPN4absl12lts_202407226StatusE(ptr noundef nonnull align 8 dereferenceable(56) %0, ptr noundef %1, ptr noundef nonnull %5)
          to label %8 unwind label %33

8:                                                ; preds = %3
  %9 = load i64, ptr %5, align 8, !tbaa !14
  store i64 %9, ptr %6, align 8, !tbaa !14
  %10 = and i64 %9, 1
  %.not.i.i = icmp eq i64 %10, 0
  br i1 %.not.i.i, label %_ZN4absl12lts_202407226StatusC2ERKS1_.exit, label %_ZN4absl12lts_202407226StatusC2ERKS1_.exit.thread

_ZN4absl12lts_202407226StatusC2ERKS1_.exit:       ; preds = %8
  %11 = inttoptr i64 %9 to ptr
  %12 = atomicrmw add ptr %11, i32 1 monotonic, align 4
  call void @llvm.lifetime.start.p0(i64 8, ptr nonnull %4)
  store i64 %9, ptr %4, align 8, !tbaa !14
  %13 = inttoptr i64 %9 to ptr
  %14 = atomicrmw add ptr %13, i32 1 monotonic, align 4
  br label %_ZN4absl12lts_202407226StatusC2ERKS1_.exit.i

_ZN4absl12lts_202407226StatusC2ERKS1_.exit.thread: ; preds = %8
  call void @llvm.lifetime.start.p0(i64 8, ptr nonnull %4)
  %15 = icmp eq i64 %9, 1
  br i1 %15, label %.thread14, label %.thread

.thread:                                          ; preds = %_ZN4absl12lts_202407226StatusC2ERKS1_.exit.thread
  store i64 %9, ptr %4, align 8, !tbaa !14
  br label %_ZN4absl12lts_202407226StatusC2ERKS1_.exit.i

_ZN4absl12lts_202407226StatusC2ERKS1_.exit.i:     ; preds = %.thread, %_ZN4absl12lts_202407226StatusC2ERKS1_.exit
  %16 = invoke noundef zeroext i1 @_Z14grpc_log_errorPKcN4absl12lts_202407226StatusES0_i(ptr noundef nonnull @.str.5, ptr noundef nonnull %4, ptr noundef nonnull @.str.1, i32 noundef 65)
          to label %17 unwind label %.body

17:                                               ; preds = %_ZN4absl12lts_202407226StatusC2ERKS1_.exit.i
  %18 = load i64, ptr %4, align 8, !tbaa !14
  %19 = and i64 %18, 1
  %.not.i.i7.i = icmp eq i64 %19, 0
  br i1 %.not.i.i7.i, label %20, label %26

20:                                               ; preds = %17
  %21 = inttoptr i64 %18 to ptr
  invoke void @_ZNK4absl12lts_2024072215status_internal9StatusRep5UnrefEv(ptr noundef nonnull align 8 dereferenceable(48) %21)
          to label %26 unwind label %22

22:                                               ; preds = %20
  %23 = landingpad { ptr, i32 }
          catch ptr null
  %24 = extractvalue { ptr, i32 } %23, 0
  call void @__clang_call_terminate(ptr %24) #20
  unreachable

.body:                                            ; preds = %_ZN4absl12lts_202407226StatusC2ERKS1_.exit.i
  %25 = landingpad { ptr, i32 }
          cleanup
  call void @_ZN4absl12lts_202407226StatusD2Ev(ptr noundef nonnull align 8 dereferenceable(8) %4) #18
  call void @_ZN4absl12lts_202407226StatusD2Ev(ptr noundef nonnull align 8 dereferenceable(8) %6) #18
  br label %46

.thread14:                                        ; preds = %_ZN4absl12lts_202407226StatusC2ERKS1_.exit.thread
  call void @llvm.lifetime.end.p0(i64 8, ptr nonnull %4)
  br label %_ZN4absl12lts_202407226StatusD2Ev.exit

26:                                               ; preds = %20, %17
  call void @llvm.lifetime.end.p0(i64 8, ptr nonnull %4)
  br i1 %.not.i.i, label %27, label %_ZN4absl12lts_202407226StatusD2Ev.exit

27:                                               ; preds = %26
  %28 = inttoptr i64 %9 to ptr
  invoke void @_ZNK4absl12lts_2024072215status_internal9StatusRep5UnrefEv(ptr noundef nonnull align 8 dereferenceable(48) %28)
          to label %_ZN4absl12lts_202407226StatusD2Ev.exit unwind label %29

29:                                               ; preds = %27
  %30 = landingpad { ptr, i32 }
          catch ptr null
  %31 = extractvalue { ptr, i32 } %30, 0
  call void @__clang_call_terminate(ptr %31) #20
  unreachable

_ZN4absl12lts_202407226StatusD2Ev.exit:           ; preds = %.thread14, %26, %27
  %32 = icmp ne ptr %7, null
  br i1 %32, label %35, label %38

33:                                               ; preds = %35, %3
  %34 = landingpad { ptr, i32 }
          cleanup
  br label %46

35:                                               ; preds = %_ZN4absl12lts_202407226StatusD2Ev.exit
  %36 = invoke ptr @gpr_strdup(ptr noundef nonnull %7)
          to label %37 unwind label %33

37:                                               ; preds = %35
  store ptr %36, ptr %2, align 8, !tbaa !39
  br label %38

38:                                               ; preds = %_ZN4absl12lts_202407226StatusD2Ev.exit, %37
  %39 = load i64, ptr %5, align 8, !tbaa !14
  %40 = and i64 %39, 1
  %.not.i.i12 = icmp eq i64 %40, 0
  br i1 %.not.i.i12, label %41, label %_ZN4absl12lts_202407226StatusD2Ev.exit13

41:                                               ; preds = %38
  %42 = inttoptr i64 %39 to ptr
  invoke void @_ZNK4absl12lts_2024072215status_internal9StatusRep5UnrefEv(ptr noundef nonnull align 8 dereferenceable(48) %42)
          to label %_ZN4absl12lts_202407226StatusD2Ev.exit13 unwind label %43

43:                                               ; preds = %41
  %44 = landingpad { ptr, i32 }
          catch ptr null
  %45 = extractvalue { ptr, i32 } %44, 0
  call void @__clang_call_terminate(ptr %45) #20
  unreachable

_ZN4absl12lts_202407226StatusD2Ev.exit13:         ; preds = %38, %41
  call void @llvm.lifetime.end.p0(i64 8, ptr nonnull %5) #18
  ret i1 %32

46:                                               ; preds = %.body, %33
  %.pn = phi { ptr, i32 } [ %34, %33 ], [ %25, %.body ]
  call void @_ZN4absl12lts_202407226StatusD2Ev(ptr noundef nonnull align 8 dereferenceable(8) %5) #18
  call void @llvm.lifetime.end.p0(i64 8, ptr nonnull %5) #18
  resume { ptr, i32 } %.pn
}